; Function Attrs: nounwind uwtable
define internal i32 @request_frame_ref(ptr noundef readonly captures(none) %0) #1 {
  %2 = load ptr, ptr %0, align 8, !tbaa !80
  %3 = getelementptr inbounds nuw i8, ptr %2, i64 32
  %4 = load ptr, ptr %3, align 8, !tbaa !86
  %5 = getelementptr inbounds nuw i8, ptr %4, i64 8
  %6 = load ptr, ptr %5, align 8, !tbaa !87
  %7 = tail call i32 @ff_request_frame(ptr noundef %6) #14
  ret i32 %7
}